; Function Attrs: nounwind uwtable
define range(i32 -50, 1) i32 @pmix20_bfrop_unpack_range(ptr noundef readnone captures(none) %0, ptr noundef %1, ptr noundef writeonly captures(none) %2, ptr noundef readonly captures(none) %3, i16 noundef zeroext %4) local_unnamed_addr #0 {
  %6 = load i32, ptr getelementptr inbounds nuw (i8, ptr @pmix_bfrops_base_framework, i64 76), align 4, !tbaa !7
  %or.cond.i = icmp ult i32 %6, 64
  br i1 %or.cond.i, label %7, label %14

7:                                                ; preds = %5
  %8 = zext nneg i32 %6 to i64
  %9 = getelementptr inbounds nuw [0 x %struct.pmix_output_desc_t], ptr @pmix_output_info, i64 0, i64 %8, i32 2
  %10 = load i32, ptr %9, align 4, !tbaa !19
  %11 = icmp sgt i32 %10, 19
  br i1 %11, label %12, label %14

12:                                               ; preds = %7
  %13 = load i32, ptr %3, align 4, !tbaa !3
  tail call void (i32, ptr, ...) @pmix_output(i32 noundef %6, ptr noundef nonnull @.str.5, i32 noundef %13) #10
  br label %14

14:                                               ; preds = %12, %7, %5
  %15 = load i32, ptr %3, align 4, !tbaa !3
  %16 = sext i32 %15 to i64
  %17 = tail call zeroext i1 @pmix_bfrop_too_small(ptr noundef %1, i64 noundef %16) #10
  br i1 %17, label %pmix20_bfrop_unpack_byte.exit, label %18

18:                                               ; preds = %14
  %19 = getelementptr inbounds nuw i8, ptr %1, i64 144
  %20 = load ptr, ptr %19, align 8, !tbaa !34
  %21 = load i32, ptr %3, align 4, !tbaa !3
  %22 = sext i32 %21 to i64
  tail call void @llvm.memcpy.p0.p0.i64(ptr align 1 %2, ptr align 1 %20, i64 %22, i1 false)
  %23 = load i32, ptr %3, align 4, !tbaa !3
  %24 = load ptr, ptr %19, align 8, !tbaa !34
  %25 = sext i32 %23 to i64
  %26 = getelementptr inbounds i8, ptr %24, i64 %25
  store ptr %26, ptr %19, align 8, !tbaa !34
  br label %pmix20_bfrop_unpack_byte.exit

pmix20_bfrop_unpack_byte.exit:                    ; preds = %14, %18
  %.0.i = phi i32 [ 0, %18 ], [ -50, %14 ]
  ret i32 %.0.i
}